; Function Attrs: nounwind uwtable
define internal range(i32 -1, 1) i32 @socket_flush_if_writable() #0 {
  %1 = load i64, ptr @PqSendPointer, align 8
  %2 = load i64, ptr @PqSendStart, align 8
  %3 = icmp eq i64 %1, %2
  br i1 %3, label %15, label %4

4:                                                ; preds = %0
  %.b2 = load i1, ptr @PqCommBusy, align 1
  br i1 %.b2, label %15, label %5

5:                                                ; preds = %4
  %6 = load ptr, ptr @MyProcPort, align 8
  %7 = icmp eq ptr %6, null
  br i1 %7, label %8, label %socket_set_nonblocking.exit

8:                                                ; preds = %5
  %9 = tail call zeroext i1 @errstart_cold(i32 noundef 21, ptr noundef null) #22
  tail call void @llvm.assume(i1 %9)
  %10 = tail call i32 @errcode(i32 noundef 50332160) #21
  %11 = tail call i32 (ptr, ...) @errmsg(ptr noundef nonnull @.str.44) #21
  tail call void @errfinish(ptr noundef nonnull @.str.2, i32 noundef 886, ptr noundef nonnull @__func__.socket_set_nonblocking) #21
  unreachable

socket_set_nonblocking.exit:                      ; preds = %5
  %12 = getelementptr inbounds nuw i8, ptr %6, i64 4
  store i8 1, ptr %12, align 4
  store i1 true, ptr @PqCommBusy, align 1
  %13 = load ptr, ptr @PqSendBuffer, align 8
  %14 = tail call fastcc range(i32 -1, 1) i32 @internal_flush_buffer(ptr noundef %13, ptr noundef nonnull @PqSendStart, ptr noundef nonnull @PqSendPointer)
  store i1 false, ptr @PqCommBusy, align 1
  br label %15

15:                                               ; preds = %4, %0, %socket_set_nonblocking.exit
  %.0 = phi i32 [ %14, %socket_set_nonblocking.exit ], [ 0, %0 ], [ 0, %4 ]
  ret i32 %.0
}